target datalayout = "e-m:e-p270:32:32-p271:32:32-p272:64:64-i64:64-i128:128-f80:128-n8:16:32:64-S128"
target triple = "x86_64-pc-linux-gnu"

%struct.SurfaceDataRasInfo = type { %struct.SurfaceDataBounds, ptr, i32, i32, i32, i32, ptr, ptr, ptr, ptr, ptr, ptr, i32, %union.anon.0 }
%struct.SurfaceDataBounds = type { i32, i32, i32, i32 }
%union.anon.0 = type { ptr, [56 x i8] }

; Function Attrs: nounwind uwtable
define hidden void @AnyByteSetLine(ptr noundef %0, i32 noundef %1, i32 noundef %2, i32 noundef %3, i32 noundef %4, i32 noundef %5, i32 noundef %6, i32 noundef %7, i32 noundef %8, i32 noundef %9, ptr noundef %10, ptr noundef %11) #0 {
  %13 = alloca ptr, align 8
  %14 = alloca i32, align 4
  %15 = alloca i32, align 4
  %16 = alloca i32, align 4
  %17 = alloca i32, align 4
  %18 = alloca i32, align 4
  %19 = alloca i32, align 4
  %20 = alloca i32, align 4
  %21 = alloca i32, align 4
  %22 = alloca i32, align 4
  %23 = alloca ptr, align 8
  %24 = alloca ptr, align 8
  %25 = alloca i32, align 4
  %26 = alloca ptr, align 8
  %27 = alloca i32, align 4
  %28 = alloca i32, align 4
  store ptr %0, ptr %13, align 8
  store i32 %1, ptr %14, align 4
  store i32 %2, ptr %15, align 4
  store i32 %3, ptr %16, align 4
  store i32 %4, ptr %17, align 4
  store i32 %5, ptr %18, align 4
  store i32 %6, ptr %19, align 4
  store i32 %7, ptr %20, align 4
  store i32 %8, ptr %21, align 4
  store i32 %9, ptr %22, align 4
  store ptr %10, ptr %23, align 8
  store ptr %11, ptr %24, align 8
  %29 = load ptr, ptr %13, align 8
  %30 = getelementptr inbounds %struct.SurfaceDataRasInfo, ptr %29, i32 0, i32 4
  %31 = load i32, ptr %30, align 8
  store i32 %31, ptr %25, align 4
  %32 = load ptr, ptr %13, align 8
  %33 = getelementptr inbounds %struct.SurfaceDataRasInfo, ptr %32, i32 0, i32 1
  %34 = load ptr, ptr %33, align 8
  %35 = ptrtoint ptr %34 to i64
  %36 = load i32, ptr %15, align 4
  %37 = sext i32 %36 to i64
  %38 = load i32, ptr %25, align 4
  %39 = sext i32 %38 to i64
  %40 = mul nsw i64 %37, %39
  %41 = load i32, ptr %14, align 4
  %42 = sext i32 %41 to i64
  %43 = mul nsw i64 %42, 1
  %44 = add nsw i64 %40, %43
  %45 = add nsw i64 %35, %44
  %46 = inttoptr i64 %45 to ptr
  store ptr %46, ptr %26, align 8
  %47 = load i32, ptr %19, align 4
  %48 = and i32 %47, 1
  %49 = icmp ne i32 %48, 0
  br i1 %49, label %50, label %51

50:                                               ; preds = %12
  br label %69

51:                                               ; preds = %12
  %52 = load i32, ptr %19, align 4
  %53 = and i32 %52, 2
  %54 = icmp ne i32 %53, 0
  br i1 %54, label %55, label %56

55:                                               ; preds = %51
  br label %67

56:                                               ; preds = %51
  %57 = load i32, ptr %19, align 4
  %58 = and i32 %57, 4
  %59 = icmp ne i32 %58, 0
  br i1 %59, label %60, label %62

60:                                               ; preds = %56
  %61 = load i32, ptr %25, align 4
  br label %65

62:                                               ; preds = %56
  %63 = load i32, ptr %25, align 4
  %64 = sub nsw i32 0, %63
  br label %65

65:                                               ; preds = %62, %60
  %66 = phi i32 [ %61, %60 ], [ %64, %62 ]
  br label %67

67:                                               ; preds = %65, %55
  %68 = phi i32 [ -1, %55 ], [ %66, %65 ]
  br label %69

69:                                               ; preds = %67, %50
  %70 = phi i32 [ 1, %50 ], [ %68, %67 ]
  store i32 %70, ptr %27, align 4
  %71 = load i32, ptr %21, align 4
  %72 = and i32 %71, 1
  %73 = icmp ne i32 %72, 0
  br i1 %73, label %74, label %75

74:                                               ; preds = %69
  br label %100

75:                                               ; preds = %69
  %76 = load i32, ptr %21, align 4
  %77 = and i32 %76, 2
  %78 = icmp ne i32 %77, 0
  br i1 %78, label %79, label %80

79:                                               ; preds = %75
  br label %98

80:                                               ; preds = %75
  %81 = load i32, ptr %21, align 4
  %82 = and i32 %81, 4
  %83 = icmp ne i32 %82, 0
  br i1 %83, label %84, label %86

84:                                               ; preds = %80
  %85 = load i32, ptr %25, align 4
  br label %96

86:                                               ; preds = %80
  %87 = load i32, ptr %21, align 4
  %88 = and i32 %87, 8
  %89 = icmp ne i32 %88, 0
  br i1 %89, label %90, label %93

90:                                               ; preds = %86
  %91 = load i32, ptr %25, align 4
  %92 = sub nsw i32 0, %91
  br label %94

93:                                               ; preds = %86
  br label %94

94:                                               ; preds = %93, %90
  %95 = phi i32 [ %92, %90 ], [ 0, %93 ]
  br label %96

96:                                               ; preds = %94, %84
  %97 = phi i32 [ %85, %84 ], [ %95, %94 ]
  br label %98

98:                                               ; preds = %96, %79
  %99 = phi i32 [ -1, %79 ], [ %97, %96 ]
  br label %100

100:                                              ; preds = %98, %74
  %101 = phi i32 [ 1, %74 ], [ %99, %98 ]
  store i32 %101, ptr %28, align 4
  %102 = load i32, ptr %27, align 4
  %103 = load i32, ptr %28, align 4
  %104 = add nsw i32 %103, %102
  store i32 %104, ptr %28, align 4
  %105 = load i32, ptr %20, align 4
  %106 = icmp eq i32 %105, 0
  br i1 %106, label %107, label %124

107:                                              ; preds = %100
  br label %108

108:                                              ; preds = %119, %107
  %109 = load i32, ptr %16, align 4
  %110 = trunc i32 %109 to i8
  %111 = load ptr, ptr %26, align 8
  %112 = getelementptr inbounds i8, ptr %111, i64 0
  store i8 %110, ptr %112, align 1
  %113 = load ptr, ptr %26, align 8
  %114 = ptrtoint ptr %113 to i64
  %115 = load i32, ptr %27, align 4
  %116 = sext i32 %115 to i64
  %117 = add nsw i64 %114, %116
  %118 = inttoptr i64 %117 to ptr
  store ptr %118, ptr %26, align 8
  br label %119

119:                                              ; preds = %108
  %120 = load i32, ptr %17, align 4
  %121 = add nsw i32 %120, -1
  store i32 %121, ptr %17, align 4
  %122 = icmp sgt i32 %121, 0
  br i1 %122, label %108, label %123, !llvm.loop !14

123:                                              ; preds = %119
  br label %158

124:                                              ; preds = %100
  br label %125

125:                                              ; preds = %153, %124
  %126 = load i32, ptr %16, align 4
  %127 = trunc i32 %126 to i8
  %128 = load ptr, ptr %26, align 8
  %129 = getelementptr inbounds i8, ptr %128, i64 0
  store i8 %127, ptr %129, align 1
  %130 = load i32, ptr %18, align 4
  %131 = icmp slt i32 %130, 0
  br i1 %131, label %132, label %142

132:                                              ; preds = %125
  %133 = load ptr, ptr %26, align 8
  %134 = ptrtoint ptr %133 to i64
  %135 = load i32, ptr %27, align 4
  %136 = sext i32 %135 to i64
  %137 = add nsw i64 %134, %136
  %138 = inttoptr i64 %137 to ptr
  store ptr %138, ptr %26, align 8
  %139 = load i32, ptr %20, align 4
  %140 = load i32, ptr %18, align 4
  %141 = add nsw i32 %140, %139
  store i32 %141, ptr %18, align 4
  br label %152

142:                                              ; preds = %125
  %143 = load ptr, ptr %26, align 8
  %144 = ptrtoint ptr %143 to i64
  %145 = load i32, ptr %28, align 4
  %146 = sext i32 %145 to i64
  %147 = add nsw i64 %144, %146
  %148 = inttoptr i64 %147 to ptr
  store ptr %148, ptr %26, align 8
  %149 = load i32, ptr %22, align 4
  %150 = load i32, ptr %18, align 4
  %151 = sub nsw i32 %150, %149
  store i32 %151, ptr %18, align 4
  br label %152

152:                                              ; preds = %142, %132
  br label %153

153:                                              ; preds = %152
  %154 = load i32, ptr %17, align 4
  %155 = add nsw i32 %154, -1
  store i32 %155, ptr %17, align 4
  %156 = icmp sgt i32 %155, 0
  br i1 %156, label %125, label %157, !llvm.loop !15

157:                                              ; preds = %153
  br label %158

158:                                              ; preds = %157, %123
  ret void
}