; Function Attrs: nofree norecurse nosync nounwind memory(write, argmem: readwrite, inaccessiblemem: none) uwtable
define hidden void @AnyByteSetLine(ptr nocapture noundef readonly %0, i32 noundef %1, i32 noundef %2, i32 noundef %3, i32 noundef %4, i32 noundef %5, i32 noundef %6, i32 noundef %7, i32 noundef %8, i32 noundef %9, ptr nocapture readnone %10, ptr nocapture readnone %11) #0 {
  %13 = getelementptr inbounds i8, ptr %0, i64 32
  %14 = load i32, ptr %13, align 8
  %15 = getelementptr inbounds i8, ptr %0, i64 16
  %16 = load ptr, ptr %15, align 8
  %17 = ptrtoint ptr %16 to i64
  %18 = sext i32 %2 to i64
  %19 = sext i32 %14 to i64
  %20 = mul nsw i64 %19, %18
  %21 = sext i32 %1 to i64
  %22 = add nsw i64 %20, %21
  %23 = add nsw i64 %22, %17
  %24 = inttoptr i64 %23 to ptr
  %25 = and i32 %6, 1
  %.not = icmp eq i32 %25, 0
  br i1 %.not, label %26, label %32

26:                                               ; preds = %12
  %27 = and i32 %6, 2
  %.not40 = icmp eq i32 %27, 0
  br i1 %.not40, label %28, label %32

28:                                               ; preds = %26
  %29 = and i32 %6, 4
  %.not41 = icmp eq i32 %29, 0
  %30 = sub nsw i32 0, %14
  %31 = select i1 %.not41, i32 %30, i32 %14
  br label %32

32:                                               ; preds = %28, %26, %12
  %33 = phi i32 [ 1, %12 ], [ %31, %28 ], [ -1, %26 ]
  %34 = and i32 %8, 1
  %.not42 = icmp eq i32 %34, 0
  br i1 %.not42, label %35, label %43

35:                                               ; preds = %32
  %36 = and i32 %8, 2
  %.not43 = icmp eq i32 %36, 0
  br i1 %.not43, label %37, label %43

37:                                               ; preds = %35
  %38 = and i32 %8, 4
  %.not44 = icmp eq i32 %38, 0
  br i1 %.not44, label %39, label %43

39:                                               ; preds = %37
  %40 = and i32 %8, 8
  %.not45 = icmp eq i32 %40, 0
  %41 = sub nsw i32 0, %14
  %42 = select i1 %.not45, i32 0, i32 %41
  br label %43

43:                                               ; preds = %37, %35, %39, %32
  %44 = phi i32 [ 1, %32 ], [ -1, %35 ], [ %42, %39 ], [ %14, %37 ]
  %45 = icmp eq i32 %7, 0
  %46 = trunc i32 %3 to i8
  br i1 %45, label %.preheader, label %.preheader46

.preheader46:                                     ; preds = %43
  %47 = sub i32 0, %9
  br label %55

.preheader:                                       ; preds = %43
  %48 = sext i32 %33 to i64
  br label %49

49:                                               ; preds = %.preheader, %49
  %.035 = phi ptr [ %52, %49 ], [ %24, %.preheader ]
  %.0 = phi i32 [ %53, %49 ], [ %4, %.preheader ]
  store i8 %46, ptr %.035, align 1
  %50 = ptrtoint ptr %.035 to i64
  %51 = add nsw i64 %50, %48
  %52 = inttoptr i64 %51 to ptr
  %53 = add nsw i32 %.0, -1
  %54 = icmp sgt i32 %.0, 1
  br i1 %54, label %49, label %.loopexit, !llvm.loop !11

55:                                               ; preds = %.preheader46, %55
  %.037 = phi i32 [ %.138, %55 ], [ %5, %.preheader46 ]
  %.136 = phi ptr [ %.2, %55 ], [ %24, %.preheader46 ]
  %.1 = phi i32 [ %59, %55 ], [ %4, %.preheader46 ]
  store i8 %46, ptr %.136, align 1
  %56 = icmp slt i32 %.037, 0
  %57 = ptrtoint ptr %.136 to i64
  %.138.p = select i1 %56, i32 %7, i32 %47
  %.138 = add i32 %.037, %.138.p
  %58 = select i1 %56, i32 0, i32 %44
  %.2.in.v.v = add nsw i32 %33, %58
  %.2.in.v = sext i32 %.2.in.v.v to i64
  %.2.in = add nsw i64 %57, %.2.in.v
  %.2 = inttoptr i64 %.2.in to ptr
  %59 = add nsw i32 %.1, -1
  %60 = icmp sgt i32 %.1, 1
  br i1 %60, label %55, label %.loopexit, !llvm.loop !12

.loopexit:                                        ; preds = %55, %49
  ret void
}